target datalayout = "e-m:e-p270:32:32-p271:32:32-p272:64:64-i64:64-i128:128-f80:128-n8:16:32:64-S128"
target triple = "x86_64-pc-linux-gnu"

@.str.51 = private unnamed_addr constant [104 x i8] c"/home/dtcxzyw/WorkSpace/Projects/compilers/llvm-opt-benchmark/bench/qemu/qemu/tcg/i386/tcg-target.c.inc\00", align 1
@__func__.tcg_out_mov = private unnamed_addr constant [12 x i8] c"tcg_out_mov\00", align 1

; Function Attrs: nounwind sspstrong uwtable
define internal zeroext i1 @tcg_out_mov(ptr noundef %0, i32 noundef %1, i32 noundef %2, i32 noundef %3) #0 {
  %5 = alloca i1, align 1
  %6 = alloca ptr, align 8
  %7 = alloca i32, align 4
  %8 = alloca i32, align 4
  %9 = alloca i32, align 4
  %10 = alloca i32, align 4
  %11 = alloca i32, align 4
  store ptr %0, ptr %6, align 8
  store i32 %1, ptr %7, align 4
  store i32 %2, ptr %8, align 4
  store i32 %3, ptr %9, align 4
  call void @llvm.lifetime.start.p0(i64 4, ptr %10) #19
  store i32 0, ptr %10, align 4
  %12 = load i32, ptr %9, align 4
  %13 = load i32, ptr %8, align 4
  %14 = icmp eq i32 %12, %13
  br i1 %14, label %15, label %16

15:                                               ; preds = %4
  store i1 true, ptr %5, align 1
  store i32 1, ptr %11, align 4
  br label %100

16:                                               ; preds = %4
  %17 = load i32, ptr %7, align 4
  switch i32 %17, label %95 [
    i32 1, label %18
    i32 0, label %19
    i32 3, label %53
    i32 4, label %67
    i32 5, label %81
  ]

18:                                               ; preds = %16
  store i32 4096, ptr %10, align 4
  br label %19

19:                                               ; preds = %16, %18
  %20 = load i32, ptr %8, align 4
  %21 = icmp ult i32 %20, 16
  br i1 %21, label %22, label %38

22:                                               ; preds = %19
  %23 = load i32, ptr %9, align 4
  %24 = icmp ult i32 %23, 16
  br i1 %24, label %25, label %31

25:                                               ; preds = %22
  %26 = load ptr, ptr %6, align 8
  %27 = load i32, ptr %10, align 4
  %28 = add i32 139, %27
  %29 = load i32, ptr %8, align 4
  %30 = load i32, ptr %9, align 4
  call void @tcg_out_modrm(ptr noundef %26, i32 noundef %28, i32 noundef %29, i32 noundef %30)
  br label %37

31:                                               ; preds = %22
  %32 = load ptr, ptr %6, align 8
  %33 = load i32, ptr %10, align 4
  %34 = add i32 1406, %33
  %35 = load i32, ptr %9, align 4
  %36 = load i32, ptr %8, align 4
  call void @tcg_out_vex_modrm(ptr noundef %32, i32 noundef %34, i32 noundef %35, i32 noundef 0, i32 noundef %36)
  br label %37

37:                                               ; preds = %31, %25
  br label %52

38:                                               ; preds = %19
  %39 = load i32, ptr %9, align 4
  %40 = icmp ult i32 %39, 16
  br i1 %40, label %41, label %47

41:                                               ; preds = %38
  %42 = load ptr, ptr %6, align 8
  %43 = load i32, ptr %10, align 4
  %44 = add i32 1390, %43
  %45 = load i32, ptr %8, align 4
  %46 = load i32, ptr %9, align 4
  call void @tcg_out_vex_modrm(ptr noundef %42, i32 noundef %44, i32 noundef %45, i32 noundef 0, i32 noundef %46)
  br label %51

47:                                               ; preds = %38
  %48 = load ptr, ptr %6, align 8
  %49 = load i32, ptr %8, align 4
  %50 = load i32, ptr %9, align 4
  call void @tcg_out_vex_modrm(ptr noundef %48, i32 noundef 131454, i32 noundef %49, i32 noundef 0, i32 noundef %50)
  br label %51

51:                                               ; preds = %47, %41
  br label %52

52:                                               ; preds = %51, %37
  br label %99

53:                                               ; preds = %16
  br label %54

54:                                               ; preds = %53
  %55 = load i32, ptr %8, align 4
  %56 = icmp uge i32 %55, 16
  br i1 %56, label %57, label %60

57:                                               ; preds = %54
  %58 = load i32, ptr %9, align 4
  %59 = icmp uge i32 %58, 16
  br i1 %59, label %61, label %60

60:                                               ; preds = %57, %54
  unreachable

61:                                               ; preds = %57
  br label %62

62:                                               ; preds = %61
  br label %63

63:                                               ; preds = %62
  %64 = load ptr, ptr %6, align 8
  %65 = load i32, ptr %8, align 4
  %66 = load i32, ptr %9, align 4
  call void @tcg_out_vex_modrm(ptr noundef %64, i32 noundef 131454, i32 noundef %65, i32 noundef 0, i32 noundef %66)
  br label %99

67:                                               ; preds = %16
  br label %68

68:                                               ; preds = %67
  %69 = load i32, ptr %8, align 4
  %70 = icmp uge i32 %69, 16
  br i1 %70, label %71, label %74

71:                                               ; preds = %68
  %72 = load i32, ptr %9, align 4
  %73 = icmp uge i32 %72, 16
  br i1 %73, label %75, label %74

74:                                               ; preds = %71, %68
  unreachable

75:                                               ; preds = %71
  br label %76

76:                                               ; preds = %75
  br label %77

77:                                               ; preds = %76
  %78 = load ptr, ptr %6, align 8
  %79 = load i32, ptr %8, align 4
  %80 = load i32, ptr %9, align 4
  call void @tcg_out_vex_modrm(ptr noundef %78, i32 noundef 1391, i32 noundef %79, i32 noundef 0, i32 noundef %80)
  br label %99

81:                                               ; preds = %16
  br label %82

82:                                               ; preds = %81
  %83 = load i32, ptr %8, align 4
  %84 = icmp uge i32 %83, 16
  br i1 %84, label %85, label %88

85:                                               ; preds = %82
  %86 = load i32, ptr %9, align 4
  %87 = icmp uge i32 %86, 16
  br i1 %87, label %89, label %88

88:                                               ; preds = %85, %82
  unreachable

89:                                               ; preds = %85
  br label %90

90:                                               ; preds = %89
  br label %91

91:                                               ; preds = %90
  %92 = load ptr, ptr %6, align 8
  %93 = load i32, ptr %8, align 4
  %94 = load i32, ptr %9, align 4
  call void @tcg_out_vex_modrm(ptr noundef %92, i32 noundef 525679, i32 noundef %93, i32 noundef 0, i32 noundef %94)
  br label %99

95:                                               ; preds = %16
  br label %96

96:                                               ; preds = %95
  call void @g_assertion_message_expr(ptr noundef null, ptr noundef @.str.51, i32 noundef 959, ptr noundef @__func__.tcg_out_mov, ptr noundef null) #20
  unreachable

97:                                               ; No predecessors!
  br label %98

98:                                               ; preds = %97
  br label %99

99:                                               ; preds = %98, %91, %77, %63, %52
  store i1 true, ptr %5, align 1
  store i32 1, ptr %11, align 4
  br label %100

100:                                              ; preds = %99, %15
  call void @llvm.lifetime.end.p0(i64 4, ptr %10) #19
  %101 = load i1, ptr %5, align 1
  ret i1 %101
}