; Function Attrs: nounwind sspstrong uwtable
define internal fastcc void @tcg_out_mov(ptr noundef captures(none) %0, i32 noundef %1, i32 noundef %2, i32 noundef %3) unnamed_addr #0 {
  %5 = icmp eq i32 %3, %2
  br i1 %5, label %130, label %6

6:                                                ; preds = %4
  switch i32 %1, label %129 [
    i32 1, label %7
    i32 0, label %8
    i32 3, label %45
    i32 4, label %73
    i32 5, label %101
  ]

7:                                                ; preds = %6
  br label %8

8:                                                ; preds = %7, %6
  %.0 = phi i32 [ %1, %6 ], [ 4096, %7 ]
  %9 = icmp ult i32 %2, 16
  %10 = icmp ult i32 %3, 16
  br i1 %9, label %11, label %16

11:                                               ; preds = %8
  br i1 %10, label %12, label %14

12:                                               ; preds = %11
  %13 = or disjoint i32 %.0, 139
  tail call fastcc void @tcg_out_modrm(ptr noundef %0, i32 noundef %13, i32 noundef %2, i32 noundef %3)
  br label %130

14:                                               ; preds = %11
  %15 = or disjoint i32 %.0, 1406
  tail call fastcc void @tcg_out_vex_modrm(ptr noundef %0, i32 noundef %15, i32 noundef %3, i32 noundef 0, i32 noundef %2)
  br label %130

16:                                               ; preds = %8
  br i1 %10, label %17, label %19

17:                                               ; preds = %16
  %18 = or disjoint i32 %.0, 1390
  tail call fastcc void @tcg_out_vex_modrm(ptr noundef %0, i32 noundef %18, i32 noundef %2, i32 noundef 0, i32 noundef %3)
  br label %130

19:                                               ; preds = %16
  %20 = and i32 %3, 8
  %21 = icmp eq i32 %20, 0
  %22 = getelementptr inbounds nuw i8, ptr %0, i64 128
  %23 = load ptr, ptr %22, align 8
  %24 = getelementptr inbounds nuw i8, ptr %23, i64 1
  store ptr %24, ptr %22, align 8
  %.tr56 = trunc i32 %2 to i8
  %25 = shl i8 %.tr56, 4
  %26 = and i8 %25, -128
  br i1 %21, label %27, label %29

27:                                               ; preds = %19
  store i8 -59, ptr %23, align 1
  %28 = xor i8 %26, -6
  br label %tcg_out_vex_opc.exit

29:                                               ; preds = %19
  store i8 -60, ptr %23, align 1
  %30 = xor i8 %26, -63
  %31 = load ptr, ptr %22, align 8
  %32 = getelementptr inbounds nuw i8, ptr %31, i64 1
  store ptr %32, ptr %22, align 8
  store i8 %30, ptr %31, align 1
  br label %tcg_out_vex_opc.exit

tcg_out_vex_opc.exit:                             ; preds = %27, %29
  %.0.i = phi i8 [ %28, %27 ], [ 122, %29 ]
  %33 = getelementptr inbounds nuw i8, ptr %0, i64 128
  %34 = load ptr, ptr %33, align 8
  %35 = getelementptr inbounds nuw i8, ptr %34, i64 1
  store ptr %35, ptr %33, align 8
  store i8 %.0.i, ptr %34, align 1
  %36 = load ptr, ptr %33, align 8
  %37 = getelementptr inbounds nuw i8, ptr %36, i64 1
  store ptr %37, ptr %33, align 8
  store i8 126, ptr %36, align 1
  %38 = shl i32 %2, 3
  %39 = and i32 %3, 7
  %40 = or disjoint i32 %39, %38
  %41 = trunc i32 %40 to i8
  %42 = or i8 %41, -64
  %43 = load ptr, ptr %33, align 8
  %44 = getelementptr inbounds nuw i8, ptr %43, i64 1
  store ptr %44, ptr %33, align 8
  store i8 %42, ptr %43, align 1
  br label %130

45:                                               ; preds = %6
  %46 = icmp ugt i32 %2, 15
  %47 = icmp ugt i32 %3, 15
  tail call void @llvm.assume(i1 %46)
  tail call void @llvm.assume(i1 %47)
  %48 = and i32 %3, 8
  %49 = icmp eq i32 %48, 0
  %50 = getelementptr inbounds nuw i8, ptr %0, i64 128
  %51 = load ptr, ptr %50, align 8
  %52 = getelementptr inbounds nuw i8, ptr %51, i64 1
  store ptr %52, ptr %50, align 8
  %.tr54 = trunc i32 %2 to i8
  %53 = shl i8 %.tr54, 4
  %54 = and i8 %53, -128
  br i1 %49, label %55, label %57

55:                                               ; preds = %45
  store i8 -59, ptr %51, align 1
  %56 = xor i8 %54, -6
  br label %tcg_out_vex_opc.exit45

57:                                               ; preds = %45
  store i8 -60, ptr %51, align 1
  %58 = xor i8 %54, -63
  %59 = load ptr, ptr %50, align 8
  %60 = getelementptr inbounds nuw i8, ptr %59, i64 1
  store ptr %60, ptr %50, align 8
  store i8 %58, ptr %59, align 1
  br label %tcg_out_vex_opc.exit45

tcg_out_vex_opc.exit45:                           ; preds = %55, %57
  %.0.i44 = phi i8 [ %56, %55 ], [ 122, %57 ]
  %61 = getelementptr inbounds nuw i8, ptr %0, i64 128
  %62 = load ptr, ptr %61, align 8
  %63 = getelementptr inbounds nuw i8, ptr %62, i64 1
  store ptr %63, ptr %61, align 8
  store i8 %.0.i44, ptr %62, align 1
  %64 = load ptr, ptr %61, align 8
  %65 = getelementptr inbounds nuw i8, ptr %64, i64 1
  store ptr %65, ptr %61, align 8
  store i8 126, ptr %64, align 1
  %66 = shl i32 %2, 3
  %67 = and i32 %3, 7
  %68 = or disjoint i32 %67, %66
  %69 = trunc i32 %68 to i8
  %70 = or i8 %69, -64
  %71 = load ptr, ptr %61, align 8
  %72 = getelementptr inbounds nuw i8, ptr %71, i64 1
  store ptr %72, ptr %61, align 8
  store i8 %70, ptr %71, align 1
  br label %130

73:                                               ; preds = %6
  %74 = icmp ugt i32 %2, 15
  %75 = icmp ugt i32 %3, 15
  tail call void @llvm.assume(i1 %74)
  tail call void @llvm.assume(i1 %75)
  %76 = and i32 %3, 8
  %77 = icmp eq i32 %76, 0
  %78 = getelementptr inbounds nuw i8, ptr %0, i64 128
  %79 = load ptr, ptr %78, align 8
  %80 = getelementptr inbounds nuw i8, ptr %79, i64 1
  store ptr %80, ptr %78, align 8
  %.tr52 = trunc i32 %2 to i8
  %81 = shl i8 %.tr52, 4
  %82 = and i8 %81, -128
  br i1 %77, label %83, label %85

83:                                               ; preds = %73
  store i8 -59, ptr %79, align 1
  %84 = xor i8 %82, -7
  br label %tcg_out_vex_opc.exit47

85:                                               ; preds = %73
  store i8 -60, ptr %79, align 1
  %86 = xor i8 %82, -63
  %87 = load ptr, ptr %78, align 8
  %88 = getelementptr inbounds nuw i8, ptr %87, i64 1
  store ptr %88, ptr %78, align 8
  store i8 %86, ptr %87, align 1
  br label %tcg_out_vex_opc.exit47

tcg_out_vex_opc.exit47:                           ; preds = %83, %85
  %.0.i46 = phi i8 [ %84, %83 ], [ 121, %85 ]
  %89 = getelementptr inbounds nuw i8, ptr %0, i64 128
  %90 = load ptr, ptr %89, align 8
  %91 = getelementptr inbounds nuw i8, ptr %90, i64 1
  store ptr %91, ptr %89, align 8
  store i8 %.0.i46, ptr %90, align 1
  %92 = load ptr, ptr %89, align 8
  %93 = getelementptr inbounds nuw i8, ptr %92, i64 1
  store ptr %93, ptr %89, align 8
  store i8 111, ptr %92, align 1
  %94 = shl i32 %2, 3
  %95 = and i32 %3, 7
  %96 = or disjoint i32 %95, %94
  %97 = trunc i32 %96 to i8
  %98 = or i8 %97, -64
  %99 = load ptr, ptr %89, align 8
  %100 = getelementptr inbounds nuw i8, ptr %99, i64 1
  store ptr %100, ptr %89, align 8
  store i8 %98, ptr %99, align 1
  br label %130

101:                                              ; preds = %6
  %102 = icmp ugt i32 %2, 15
  %103 = icmp ugt i32 %3, 15
  tail call void @llvm.assume(i1 %102)
  tail call void @llvm.assume(i1 %103)
  %104 = and i32 %3, 8
  %105 = icmp eq i32 %104, 0
  %106 = getelementptr inbounds nuw i8, ptr %0, i64 128
  %107 = load ptr, ptr %106, align 8
  %108 = getelementptr inbounds nuw i8, ptr %107, i64 1
  store ptr %108, ptr %106, align 8
  %.tr50 = trunc i32 %2 to i8
  %109 = shl i8 %.tr50, 4
  %110 = and i8 %109, -128
  br i1 %105, label %111, label %113

111:                                              ; preds = %101
  store i8 -59, ptr %107, align 1
  %112 = xor i8 %110, -3
  br label %tcg_out_vex_opc.exit49

113:                                              ; preds = %101
  store i8 -60, ptr %107, align 1
  %114 = xor i8 %110, -63
  %115 = load ptr, ptr %106, align 8
  %116 = getelementptr inbounds nuw i8, ptr %115, i64 1
  store ptr %116, ptr %106, align 8
  store i8 %114, ptr %115, align 1
  br label %tcg_out_vex_opc.exit49

tcg_out_vex_opc.exit49:                           ; preds = %111, %113
  %.0.i48 = phi i8 [ %112, %111 ], [ 125, %113 ]
  %117 = getelementptr inbounds nuw i8, ptr %0, i64 128
  %118 = load ptr, ptr %117, align 8
  %119 = getelementptr inbounds nuw i8, ptr %118, i64 1
  store ptr %119, ptr %117, align 8
  store i8 %.0.i48, ptr %118, align 1
  %120 = load ptr, ptr %117, align 8
  %121 = getelementptr inbounds nuw i8, ptr %120, i64 1
  store ptr %121, ptr %117, align 8
  store i8 111, ptr %120, align 1
  %122 = shl i32 %2, 3
  %123 = and i32 %3, 7
  %124 = or disjoint i32 %123, %122
  %125 = trunc i32 %124 to i8
  %126 = or i8 %125, -64
  %127 = load ptr, ptr %117, align 8
  %128 = getelementptr inbounds nuw i8, ptr %127, i64 1
  store ptr %128, ptr %117, align 8
  store i8 %126, ptr %127, align 1
  br label %130

129:                                              ; preds = %6
  tail call void @g_assertion_message_expr(ptr noundef null, ptr noundef nonnull @.str.51, i32 noundef 959, ptr noundef nonnull @__func__.tcg_out_mov, ptr noundef null) #31
  unreachable

130:                                              ; preds = %tcg_out_vex_opc.exit45, %tcg_out_vex_opc.exit47, %tcg_out_vex_opc.exit49, %17, %tcg_out_vex_opc.exit, %12, %14, %4
  ret void
}